; Function Attrs: nounwind sspstrong uwtable
define dso_local zeroext i1 @visit_type_GuestPanicInformationS390_members(ptr noundef %v, ptr noundef %obj, ptr noundef %errp) local_unnamed_addr #0 {
entry:
  %value.i = alloca i32, align 4
  %call = tail call zeroext i1 @visit_type_uint32(ptr noundef %v, ptr noundef nonnull @.str.19, ptr noundef %obj, ptr noundef %errp) #5
  br i1 %call, label %if.end, label %return

if.end:                                           ; preds = %entry
  %psw_mask = getelementptr inbounds nuw i8, ptr %obj, i64 8
  %call1 = tail call zeroext i1 @visit_type_uint64(ptr noundef %v, ptr noundef nonnull @.str.20, ptr noundef nonnull %psw_mask, ptr noundef %errp) #5
  br i1 %call1, label %if.end3, label %return

if.end3:                                          ; preds = %if.end
  %psw_addr = getelementptr inbounds nuw i8, ptr %obj, i64 16
  %call4 = tail call zeroext i1 @visit_type_uint64(ptr noundef %v, ptr noundef nonnull @.str.21, ptr noundef nonnull %psw_addr, ptr noundef %errp) #5
  br i1 %call4, label %if.end6, label %return

if.end6:                                          ; preds = %if.end3
  %reason = getelementptr inbounds nuw i8, ptr %obj, i64 24
  call void @llvm.lifetime.start.p0(i64 4, ptr nonnull %value.i)
  %0 = load i32, ptr %reason, align 4
  store i32 %0, ptr %value.i, align 4
  %call.i = call zeroext i1 @visit_type_enum(ptr noundef %v, ptr noundef nonnull @.str.6, ptr noundef nonnull %value.i, ptr noundef nonnull @S390CrashReason_lookup, ptr noundef %errp) #5
  %1 = load i32, ptr %value.i, align 4
  store i32 %1, ptr %reason, align 4
  call void @llvm.lifetime.end.p0(i64 4, ptr nonnull %value.i)
  br label %return

return:                                           ; preds = %if.end6, %if.end3, %if.end, %entry
  %retval.0 = phi i1 [ false, %entry ], [ false, %if.end ], [ false, %if.end3 ], [ %call.i, %if.end6 ]
  ret i1 %retval.0
}